(lp0
(lp1
I0
aI0
aI1
aag1
ag1
ag1
ag1
a(lp2
I1
aI0
aI0
aag2
ag2
ag2
ag2
ag1
ag1
ag1
ag1
ag1
a(lp3
I0
aI1
aI0
aag3
ag3
ag3
ag3
ag2
ag2
ag2
ag2
ag2
ag3
ag3
ag3
ag3
ag3
ag1
ag1
ag1
ag1
ag1
ag2
ag2
ag2
ag2
ag2
ag3
ag3
ag3
ag3
ag3
ag1
ag1
ag1
ag1
ag1
ag3
ag3
ag3
ag3
ag3
ag2
ag2
ag2
ag2
ag2
ag2
ag2
ag2
ag2
ag2
ag1
ag1
ag1
ag1
ag1
ag3
ag3
ag3
ag3
ag3
ag1
ag1
ag1
ag1
ag1
ag2
ag2
ag2
ag2
ag2
ag1
ag1
ag1
ag1
ag1
ag1
ag1
ag1
ag1
ag1
ag2
ag2
ag2
ag2
ag2
ag1
ag1
ag1
ag1
ag1
ag3
ag3
ag3
ag3
ag3
ag2
ag2
ag2
ag2
ag2
ag3
ag3
ag3
ag3
ag3
ag3
ag3
ag3
ag3
ag3
ag1
ag1
ag1
ag1
ag1
ag2
ag2
ag2
ag2
ag2
ag2
ag2
ag2
ag2
ag2
ag3
ag3
ag3
ag3
ag3
ag3
ag3
ag3
ag3
ag3
ag2
ag2
ag2
ag2
ag2
ag3
ag3
ag3
ag3
ag3
ag1
ag1
ag1
ag1
ag1
ag2
ag2
ag2
ag2
ag2
ag2
ag2
ag2
ag2
ag2
ag3
ag3
ag3
ag3
ag3
ag1
ag1
ag1
ag1
ag1
ag3
ag3
ag3
ag3
ag3
ag1
ag1
ag1
ag1
ag1
ag1
ag1
ag1
ag1
ag1
ag3
ag3
ag3
ag3
ag3
ag3
ag3
ag3
ag3
ag3
ag1
ag1
ag1
ag1
ag1
ag2
ag2
ag2
ag2
ag2
ag2
ag2
ag2
ag2
ag2
ag1
ag1
ag1
ag1
ag1
ag3
ag3
ag3
ag3
ag3
ag2
ag2
ag2
ag2
ag2
ag3
ag3
ag3
ag3
ag3
ag1
ag1
ag1
ag1
ag1
ag2
ag2
ag2
ag2
ag2
ag1
ag1
ag1
ag1
ag1
ag1
ag1
ag1
ag1
ag1
ag3
ag3
ag3
ag3
ag3
ag2
ag2
ag2
ag2
ag2
ag1
ag1
ag1
ag1
ag1
ag2
ag2
ag2
ag2
ag2
ag2
ag3
ag3
ag3
ag3
ag3
ag3
ag3
ag3
ag3
ag3
ag1
ag1
ag1
ag1
ag1
ag2
ag2
ag2
ag2
ag2
ag2
ag2
ag2
ag2
ag2
ag1
ag1
ag1
ag1
ag1
ag3
ag3
ag3
ag3
ag3
ag3
ag3
ag3
ag3
ag3
ag2
ag2
ag2
ag2
ag2
ag2
ag2
ag2
ag2
ag2
ag3
ag3
ag3
ag3
ag3
ag2
ag2
ag2
ag2
ag2
ag2
ag2
ag2
ag2
ag2
ag1
ag1
ag1
ag1
ag1
ag1
ag1
ag1
ag1
ag1
ag2
ag2
ag2
ag2
ag2
ag1
ag1
ag1
ag1
ag1
ag1
ag1
ag1
ag1
ag1
ag3
ag3
ag3
ag3
ag3
ag3
ag3
ag3
ag3
ag3
ag1
ag1
ag1
ag1
ag1
ag3
ag3
ag3
ag3
ag3
ag2
ag2
ag2
ag2
ag2
ag1
ag1
ag1
ag1
ag1
ag2
ag2
ag2
ag2
ag2
ag1
ag1
ag1
ag1
ag1
ag3
ag3
ag3
ag3
ag3
ag3
ag3
ag3
ag3
ag3
ag2
ag2
ag2
ag2
ag2
ag1
ag1
ag1
ag1
ag1
ag3
ag3
ag3
ag3
ag3
ag3
ag3
ag3
ag3
ag3
ag1
ag1
ag1
ag1
ag1
ag2
ag2
ag2
ag2
ag2
ag2
ag2
ag2
ag2
ag2
ag1
ag1
ag1
ag1
ag1
ag3
ag3
ag3
ag3
ag3
ag3
ag3
ag3
ag3
ag3
ag2
ag2
ag2
ag2
ag2
ag2
ag2
ag2
ag2
ag2
ag3
ag3
ag3
ag3
ag3
ag2
ag2
ag2
ag2
ag2
ag2
ag2
ag2
ag2
ag2
ag1
ag1
ag1
ag1
ag1
ag1
ag1
ag1
ag1
ag1
ag2
ag2
ag2
ag2
ag2
ag1
ag1
ag1
ag1
ag1
ag1
ag1
ag1
ag1
ag1
ag3
ag3
ag3
ag3
ag3
ag3
ag3
ag3
ag3
ag3
ag1
ag1
ag1
ag1
ag1
ag3
ag3
ag3
ag3
ag3
ag2
ag2
ag2
ag2
ag2
ag1
ag1
ag1
ag1
ag1
ag2
ag2
ag2
ag2
ag2
ag1
ag1
ag2
ag2
ag2
ag2
ag2
ag3
ag3
ag3
ag3
ag3
ag1
ag1
ag1
ag1
ag1
ag2
ag2
ag2
ag2
ag2
ag2
ag2
ag2
ag2
ag2
ag3
ag3
ag3
ag3
ag3
ag1
ag1
ag1
ag1
ag1
ag3
ag3
ag3
ag3
ag3
ag1
ag1
ag1
ag1
ag1
ag1
ag1
ag1
ag1
ag1
ag3
ag3
ag3
ag3
ag3
ag3
ag3
ag3
ag3
ag3
ag1
ag1
ag1
ag1
ag1
ag2
ag2
ag2
ag2
ag2
ag2
ag2
ag2
ag2
ag2
ag1
ag1
ag1
ag1
ag1
ag3
ag3
ag3
ag3
ag3
ag2
ag2
ag2
ag2
ag2
ag3
ag3
ag3
ag3
ag3
ag1
ag1
ag1
ag1
ag1
ag2
ag2
ag2
ag2
ag2
ag1
ag1
ag1
ag1
ag1
ag1
ag1
ag1
ag1
ag1
ag3
ag3
ag3
ag3
ag3
ag2
ag2
ag2
ag2
ag2
ag1
ag1
ag1
ag1
ag1
ag2
ag2
ag2
ag2
ag2
ag2
ag2
ag2
ag2
ag2
ag3
ag3
ag3
ag3
ag3
ag3
ag3
ag3
ag3
ag3
ag1
ag1
ag1
ag1
ag1
ag2
ag2
ag2
ag2
ag2
ag1
ag1
ag1
ag1
ag1
ag3
ag3
ag3
ag3
ag3
ag2
ag2
ag2
ag2
ag2
ag3
ag3
ag3
ag3
ag3
ag1
ag1
ag1
ag1
ag1
ag2
ag2
ag2
ag2
ag2
ag3
ag3
ag3
ag3
ag3
ag1
ag1
ag1
ag1
ag1
ag3
ag3
ag3
ag3
ag3
ag2
ag2
ag2
ag2
ag2
ag2
ag2
ag2
ag2
ag2
ag1
ag1
ag1
ag1
ag1
ag3
ag3
ag3
ag3
ag3
ag1
ag1
ag1
ag1
ag1
ag2
ag2
ag2
ag2
ag2
ag1
ag1
ag1
ag1
ag1
ag1
ag1
ag1
ag1
ag1
ag2
ag2
ag2
ag2
ag2
ag1
ag1
ag1
ag1
ag1
ag3
ag3
ag3
ag3
ag3
ag2
ag2
ag2
ag2
ag2
ag3
ag3
ag3
ag3
ag3
ag3
ag3
ag3
ag3
ag3
ag1
ag1
ag1
ag1
ag1
ag2
ag2
ag2
ag2
ag2
ag2
ag2
ag2
ag2
ag2
ag3
ag3
ag3
ag3
ag3
ag3
ag3
ag3
ag3
ag3
ag3
ag3
ag3
ag3
ag3
ag3
ag3
ag3
ag3
ag3
ag1
ag1
ag1
ag1
ag1
ag2
ag2
ag2
ag2
ag2
ag2
ag2
ag2
ag2
ag2
ag1
ag1
ag1
ag1
ag1
ag3
ag3
ag3
ag3
ag3
ag3
ag3
ag3
ag3
ag3
ag2
ag2
ag2
ag2
ag2
ag2
ag2
ag2
ag2
ag2
ag3
ag3
ag3
ag3
ag3
ag2
ag2
ag2
ag2
ag2
ag2
ag2
ag2
ag2
ag2
ag1
ag1
ag1
ag1
ag1
ag1
ag1
ag1
ag1
ag1
ag2
ag2
ag2
ag2
ag2
ag1
ag1
ag1
ag1
ag1
ag1
ag1
ag1
ag1
ag1
ag3
ag3
ag3
ag3
ag3
ag3
ag3
ag3
ag3
ag3
ag1
ag1
ag1
ag1
ag1
ag3
ag3
ag3
ag3
ag3
ag2
ag2
ag2
ag2
ag2
ag1
ag1
ag1
ag1
ag1
ag2
ag2
ag2
ag2
ag2
ag1
ag1
ag1
ag1
ag1
ag3
ag3
ag3
ag3
ag3
ag3
ag3
ag3
ag3
ag3
ag2
ag2
ag2
ag2
ag2
ag1
ag1
ag1
ag1
ag1
ag2
ag2
ag2
ag2
ag2
ag3
ag3
ag3
ag3
ag3
ag1
ag1
ag1
ag1
ag1
ag2
ag2
ag2
ag2
ag2
ag2
ag2
ag2
ag2
ag2
ag3
ag3
ag3
ag3
ag3
ag1
ag1
ag1
ag1
ag1
ag3
ag3
ag3
ag3
ag3
ag1
ag1
ag1
ag1
ag1
ag1
ag1
ag1
ag1
ag1
ag3
ag3
ag3
ag3
ag3
ag3
ag3
ag3
ag3
ag3
ag1
ag1
ag1
ag1
ag1
ag2
ag2
ag2
ag2
ag2
ag2
ag2
ag2
ag2
ag2
ag1
ag1
ag1
ag1
ag1
ag3
ag3
ag3
ag3
ag3
ag2
ag2
ag2
ag2
ag2
ag3
ag3
ag3
ag3
ag3
ag1
ag1
ag1
ag1
ag1
ag2
ag2
ag2
ag2
ag2
ag1
ag1
ag1
ag1
ag1
ag1
ag1
ag1
ag1
ag1
ag3
ag3
ag3
ag3
ag3
ag1
ag1
ag1
ag1
ag1
ag2
ag2
ag2
ag2
ag2
ag1
ag1
ag1
ag1
ag1
ag3
ag3
ag3
ag3
ag3
ag2
ag2
ag2
ag2
ag2
ag3
ag3
ag3
ag3
ag3
ag1
ag1
ag1
ag1
ag1
ag2
ag2
ag2
ag2
ag2
ag3
ag3
ag3
ag3
ag3
ag1
ag1
ag1
ag1
ag1
ag3
ag3
ag3
ag3
ag3
ag2
ag2
ag2
ag2
ag2
ag2
ag2
ag2
ag2
ag2
ag1
ag1
ag1
ag1
ag1
ag3
ag3
ag3
ag3
ag3
ag1
ag1
ag1
ag1
ag1
ag2
ag2
ag2
ag2
ag2
ag1
ag1
ag1
ag1
ag1
ag1
ag1
ag1
ag1
ag1
ag2
ag2
ag2
ag2
ag2
ag1
ag1
ag1
ag1
ag1
ag3
ag3
ag3
ag3
ag3
ag2
ag2
ag2
ag2
ag2
ag3
ag3
ag3
ag3
ag3
ag3
ag3
ag3
ag3
ag3
ag1
ag1
ag1
ag1
ag1
ag2
ag2
ag2
ag2
ag2
ag2
ag2
ag2
ag2
ag2
ag3
ag3
ag3
ag3
ag3
ag3
ag3
ag3
ag3
ag3
ag3
ag3
ag3
ag3
ag3
ag3
ag3
ag3
ag3
ag3
ag1
ag1
ag1
ag1
ag1
ag2
ag2
ag2
ag2
ag2
ag2
ag2
ag2
ag2
ag2
ag1
ag1
ag1
ag1
ag1
ag3
ag3
ag3
ag3
ag3
ag3
ag3
ag3
ag3
ag3
ag2
ag2
ag2
ag2
ag2
ag2
ag2
ag2
ag2
ag2
ag3
ag3
ag3
ag3
ag3
ag2
ag2
ag2
ag2
ag2
ag2
ag2
ag2
ag2
ag2
ag1
ag1
ag1
ag1
ag1
ag1
ag1
ag1
ag1
ag1
ag2
ag2
ag2
ag2
ag2
ag1
ag1
ag1
ag1
ag1
ag1
ag1
ag1
ag1
ag1
ag3
ag3
ag3
ag3
ag3
ag3
ag3
ag3
ag3
ag3
ag1
ag1
ag1
ag1
ag1
ag3
ag3
ag3
ag3
ag3
ag2
ag2
ag2
ag2
ag2
ag1
ag1
ag1
ag1
ag1
ag2
ag2
ag2
ag2
ag2
ag1
ag1
ag1
ag1
ag1
ag3
ag3
ag3
ag3
ag3
ag3
ag3
ag3
ag3
ag3
ag2
ag2
ag2
ag2
ag2
ag1
ag1
ag1
ag1
ag1
ag2
ag2
ag2
ag2
ag2
ag3
ag3
ag3
ag3
ag3
ag1
ag1
ag1
ag1
ag1
ag2
ag2
ag2
ag2
ag2
ag2
ag2
ag2
ag2
ag2
ag3
ag3
ag3
ag3
ag3
ag1
ag1
ag1
ag1
ag1
ag3
ag3
ag3
ag3
ag3
ag1
ag1
ag1
ag1
ag1
ag1
ag1
ag1
ag1
ag1
ag3
ag3
ag3
ag3
ag3
ag3
ag3
ag3
ag3
ag3
ag1
ag1
ag1
ag1
ag1
ag2
ag2
ag2
ag2
ag2
ag2
ag2
ag2
ag2
ag2
ag1
ag1
ag1
ag1
ag1
ag3
ag3
ag3
ag3
ag3
ag2
ag2
ag2
ag2
ag2
ag3
ag3
ag3
ag3
ag3
ag1
ag1
ag1
ag1
ag1
ag2
ag2
ag2
ag2
ag2
ag1
ag1
ag1
ag1
ag1
ag1
ag1
ag1
ag1
ag1
ag1
ag1
ag1
ag1
ag1
ag2
ag2
ag2
ag2
ag2
ag1
ag1
ag1
ag1
ag1
ag3
ag3
ag3
ag3
ag3
ag2
ag2
ag2
ag2
ag2
ag3
ag3
ag3
ag3
ag3
ag1
ag1
ag1
ag1
ag1
ag2
ag2
ag2
ag2
ag2
ag3
ag3
ag3
ag3
ag3
ag1
ag1
ag1
ag1
ag1
ag3
ag3
ag3
ag3
ag3
ag2
ag2
ag2
ag2
ag2
ag2
ag2
ag2
ag2
ag2
ag1
ag1
ag1
ag1
ag1
ag3
ag3
ag3
ag3
ag3
ag1
ag1
ag1
ag1
ag1
ag2
ag2
ag2
ag2
ag2
ag1
ag1
ag1
ag1
ag1
ag1
ag1
ag1
ag1
ag1
ag2
ag2
ag2
ag2
ag2
ag1
ag1
ag1
ag1
ag1
ag3
ag3
ag3
ag3
ag3
ag2
ag2
ag2
ag2
ag2
ag3
ag3
ag3
ag3
ag3
ag3
ag3
ag3
ag3
ag3
ag1
ag1
ag1
ag1
ag1
ag2
ag2
ag2
ag2
ag2
ag2
ag2
ag2
ag2
ag2
ag3
ag3
ag3
ag3
ag3
ag3
ag3
ag3
ag3
ag3
a.